; Function Attrs: mustprogress nounwind uwtable
define hidden noundef zeroext i1 @_ZN13StackOverflow13reguard_stackEPh(ptr nocapture noundef nonnull align 8 dereferenceable(56) %0, ptr noundef readnone %1) local_unnamed_addr #2 align 2 {
  %3 = load i32, ptr %0, align 8
  %.off = add i32 %3, -1
  %switch = icmp ult i32 %.off, 2
  br i1 %switch, label %4, label %27

4:                                                ; preds = %2
  %5 = getelementptr inbounds i8, ptr %0, i64 48
  %6 = load ptr, ptr %5, align 8
  %7 = load i64, ptr @_ZN13StackOverflow20_stack_red_zone_sizeE, align 8
  %8 = load i64, ptr @_ZN13StackOverflow23_stack_yellow_zone_sizeE, align 8
  %9 = load i64, ptr @_ZN13StackOverflow25_stack_reserved_zone_sizeE, align 8
  %10 = getelementptr i8, ptr %6, i64 %7
  %11 = getelementptr i8, ptr %10, i64 %8
  %12 = getelementptr i8, ptr %11, i64 %9
  %13 = icmp ult ptr %12, %1
  br i1 %13, label %16, label %14

14:                                               ; preds = %4
  %15 = load ptr, ptr @g_assert_poison, align 8
  store i8 88, ptr %15, align 1
  tail call void (ptr, i32, ptr, ptr, ...) @_Z15report_vm_errorPKciS0_S0_z(ptr noundef nonnull @.str.6, i32 noundef 239, ptr noundef nonnull @.str.21, ptr noundef nonnull @.str.22) #8
  unreachable

16:                                               ; preds = %4
  %switch7 = icmp eq i32 %3, 2
  br i1 %switch7, label %17, label %23

17:                                               ; preds = %16
  tail call void @_ZN13StackOverflow33enable_stack_yellow_reserved_zoneEv(ptr noundef nonnull align 8 dereferenceable(56) %0)
  %18 = getelementptr inbounds i8, ptr %0, i64 16
  %19 = load ptr, ptr %18, align 8
  %20 = getelementptr inbounds i8, ptr %0, i64 40
  %21 = load ptr, ptr %20, align 8
  %.not5 = icmp eq ptr %19, %21
  br i1 %.not5, label %27, label %22

22:                                               ; preds = %17
  store ptr %21, ptr %18, align 8
  br label %27

23:                                               ; preds = %16
  %24 = getelementptr inbounds i8, ptr %0, i64 40
  %25 = load ptr, ptr %24, align 8
  %26 = getelementptr inbounds i8, ptr %0, i64 16
  store ptr %25, ptr %26, align 8
  tail call void @_ZN13StackOverflow26enable_stack_reserved_zoneEb(ptr noundef nonnull align 8 dereferenceable(56) %0, i1 noundef zeroext false)
  br label %27

27:                                               ; preds = %2, %22, %17, %23
  ret i1 true
}